(dp0
S'all_func_clik_increase'
p1
(lp2
(lp3
V2016\u5e743\u670831\u53f7
p4
aV2016\u5e744\u670808\u53f7
p5
aV2016\u5e744\u670815\u53f7
p6
aV2016\u5e744\u670822\u53f7
p7
aV2016\u5e744\u670829\u53f7
p8
aV2016\u5e745\u670806\u53f7
p9
aV2016\u5e745\u670813\u53f7
p10
aV2016\u5e745\u670820\u53f7
p11
aV2016\u5e745\u670827\u53f7
p12
aV2016\u5e746\u670803\u53f7
p13
aV2016\u5e746\u670808\u53f7
p14
aV2016\u5e746\u670817\u53f7
p15
aV2016\u5e746\u670824\u53f7
p16
aV2016\u5e747\u670801\u53f7
p17
aS'2016\xe5\xb9\xb407\xe6\x9c\x8808\xe5\x8f\xb7'
p18
aS'2016\xe5\xb9\xb407\xe6\x9c\x8815\xe5\x8f\xb7'
p19
aS'2016\xe5\xb9\xb407\xe6\x9c\x8822\xe5\x8f\xb7'
p20
aS'2016\xe5\xb9\xb407\xe6\x9c\x8828\xe5\x8f\xb7'
p21
aS'2016\xe5\xb9\xb408\xe6\x9c\x8805\xe5\x8f\xb7'
p22
aS'2016\xe5\xb9\xb408\xe6\x9c\x8812\xe5\x8f\xb7'
p23
aS'2016\xe5\xb9\xb408\xe6\x9c\x8819\xe5\x8f\xb7'
p24
aS'2016\xe5\xb9\xb408\xe6\x9c\x8826\xe5\x8f\xb7'
p25
aS'2016\xe5\xb9\xb409\xe6\x9c\x8802\xe5\x8f\xb7'
p26
aS'2016\xe5\xb9\xb409\xe6\x9c\x8809\xe5\x8f\xb7'
p27
aS'2016\xe5\xb9\xb409\xe6\x9c\x8818\xe5\x8f\xb7'
p28
aS'2016\xe5\xb9\xb409\xe6\x9c\x8823\xe5\x8f\xb7'
p29
aS'2016\xe5\xb9\xb409\xe6\x9c\x8830\xe5\x8f\xb7'
p30
aS'2016\xe5\xb9\xb410\xe6\x9c\x8808\xe5\x8f\xb7'
p31
aS'2016\xe5\xb9\xb410\xe6\x9c\x8814\xe5\x8f\xb7'
p32
aa(lp33
I6244
aI9256
aI12501
aI14837
aI17593
aI20486
aI22912
aI25076
aI28621
aI29170
aI20889
aI39341
aI51901
aI50762
aI40579
aI35972
aI20777
aI12334
aI17580
aI7608
aI8994
aI18710
aI75767
aI72211
aI95246
aI82745
aI87673
aI58632
aI98701
aa(lp34
I6955
aI7069
aI7399
aI9222
aI10008
aI7432
aI8873
aI8702
aI9115
aI8975
aI4629
aI8881
aI10116
aI12397
aI9142
aI6357
aI2106
aI2020
aI2055
aI1442
aI1456
aI3263
aI13075
aI17621
aI27838
aI21997
aI24325
aI15820
aI17763
aa(lp35
I63351
aI83014
aI47825
aI40130
aI46200
aI47063
aI49952
aI53796
aI55395
aI58150
aI34671
aI74473
aI111542
aI113831
aI79796
aI39634
aI14191
aI12117
aI14225
aI9925
aI892
aI1736
aI6578
aI9121
aI14594
aI7527
aI0
aI0
aI0
aa(lp36
I7892
aI10825
aI11338
aI9895
aI10666
aI11326
aI11402
aI10992
aI10204
aI12509
aI6482
aI12393
aI11543
aI9632
aI6658
aI3993
aI1736
aI1540
aI1650
aI1378
aI1500
aI3311
aI11670
aI14132
aI17750
aI12083
aI13095
aI9644
aI12259
aa(lp37
I7970
aI10995
aI13597
aI15666
aI16817
aI17201
aI20750
aI22387
aI23669
aI24929
aI15732
aI29775
aI34493
aI33027
aI27837
aI21327
aI6673
aI6819
aI7484
aI6022
aI6534
aI13789
aI65424
aI80549
aI112564
aI90859
aI86975
aI44097
aI72932
aa(lp38
I7371
aI9963
aI11455
aI11550
aI11518
aI10278
aI12458
aI12520
aI12182
aI13112
aI8333
aI13827
aI15290
aI18230
aI18035
aI13269
aI4639
aI4504
aI5004
aI4202
aI4197
aI8748
aI35097
aI52374
aI83042
aI62882
aI67594
aI49264
aI58201
aa(lp39
I591
aI703
aI736
aI9
aI0
aI0
aI0
aI0
aI0
aI0
aI0
aI0
aI0
aI0
aI0
aI0
aI0
aI0
aI0
aI0
aI0
aI0
aI0
aI0
aI0
aI0
aI0
aI0
aI0
aa(lp40
I5618
aI7410
aI8038
aI8014
aI7804
aI7995
aI7744
aI7485
aI7470
aI8110
aI4685
aI10540
aI11710
aI11174
aI7807
aI5838
aI1948
aI1607
aI1755
aI1410
aI1424
aI3042
aI12240
aI13604
aI19877
aI14368
aI14995
aI9333
aI13400
aa(lp41
I13105
aI14872
aI13736
aI17354
aI17215
aI16480
aI15592
aI13866
aI12488
aI11778
aI5896
aI11225
aI15098
aI16666
aI14110
aI8495
aI2499
aI2335
aI2525
aI1946
aI2065
aI5060
aI22972
aI29258
aI43745
aI33505
aI32241
aI18366
aI28828
aasS'all_func_clik'
p42
(lp43
(lp44
g4
ag5
ag6
ag7
ag8
ag9
ag10
ag11
ag12
ag13
ag14
ag15
ag16
ag17
ag18
ag19
ag20
ag21
ag22
ag23
ag24
ag25
ag26
ag27
ag28
ag29
ag30
ag31
ag32
aa(lp45
I14143
aI23399
aI35900
aI50737
aI68330
aI88816
aI111728
aI136804
aI165425
aI194595
aI215484
aI254825
aI306726
aI357488
aI398067
aI434039
aI454816
aI467150
aI484730
aI492338
aI501332
aI520042
aI595809
aI668020
aI763266
aI846011
aI933684
aI992316
aI1091017
aa(lp46
I15664
aI22733
aI30132
aI39354
aI49362
aI56794
aI65667
aI74369
aI83484
aI92459
aI97088
aI105969
aI116085
aI128482
aI137624
aI143981
aI146087
aI148107
aI150162
aI151604
aI153060
aI156323
aI169398
aI187019
aI214857
aI236854
aI261179
aI276999
aI294762
aa(lp47
I118772
aI201786
aI249611
aI289741
aI335941
aI383004
aI432956
aI486752
aI542147
aI600297
aI634968
aI709441
aI820983
aI934814
aI1014610
aI1054244
aI1068435
aI1080552
aI1094777
aI1104702
aI1105594
aI1107330
aI1113908
aI1123029
aI1137623
aI1145150
aI1145150
aI1145150
aI1145150
aa(lp48
I17459
aI28284
aI39622
aI49517
aI60183
aI71509
aI82911
aI93903
aI104107
aI116616
aI123098
aI135491
aI147034
aI156666
aI163324
aI167317
aI169053
aI170593
aI172243
aI173621
aI175121
aI178432
aI190102
aI204234
aI221984
aI234067
aI247162
aI256806
aI269065
aa(lp49
I20588
aI31583
aI45180
aI60846
aI77663
aI94864
aI115614
aI138001
aI161670
aI186599
aI202331
aI232106
aI266599
aI299626
aI327463
aI348790
aI355463
aI362282
aI369766
aI375788
aI382322
aI396111
aI461535
aI542084
aI654648
aI745507
aI832482
aI876579
aI949511
aa(lp50
I16262
aI26225
aI37680
aI49230
aI60748
aI71026
aI83484
aI96004
aI108186
aI121298
aI129631
aI143458
aI158748
aI176978
aI195013
aI208282
aI212921
aI217425
aI222429
aI226631
aI230828
aI239576
aI274673
aI327047
aI410089
aI472971
aI540565
aI589829
aI648030
aa(lp51
I1199
aI1902
aI2638
aI2647
aI2647
aI2647
aI2647
aI2647
aI2647
aI2647
aI2647
aI2647
aI2647
aI2647
aI2647
aI2647
aI2647
aI2647
aI2647
aI2647
aI2647
aI2647
aI2647
aI2647
aI2647
aI2647
aI2647
aI2647
aI2647
aa(lp52
I13461
aI20871
aI28909
aI36923
aI44727
aI52722
aI60466
aI67951
aI75421
aI83531
aI88216
aI98756
aI110466
aI121640
aI129447
aI135285
aI137233
aI138840
aI140595
aI142005
aI143429
aI146471
aI158711
aI172315
aI192192
aI206560
aI221555
aI230888
aI244288
aa(lp53
I16032
aI30904
aI44640
aI61994
aI79209
aI95689
aI111281
aI125147
aI137635
aI149413
aI155309
aI166534
aI181632
aI198298
aI212408
aI220903
aI223402
aI225737
aI228262
aI230208
aI232273
aI237333
aI260305
aI289563
aI333308
aI366813
aI399054
aI417420
aI446248
aas.