(dp0
S'all_func_clik_increase'
p1
(lp2
(lp3
V2016\u5e743\u670831\u53f7
p4
aV2016\u5e744\u670808\u53f7
p5
aV2016\u5e744\u670815\u53f7
p6
aV2016\u5e744\u670822\u53f7
p7
aV2016\u5e744\u670829\u53f7
p8
aV2016\u5e745\u670806\u53f7
p9
aV2016\u5e745\u670813\u53f7
p10
aV2016\u5e745\u670820\u53f7
p11
aV2016\u5e745\u670827\u53f7
p12
aV2016\u5e746\u670803\u53f7
p13
aV2016\u5e746\u670808\u53f7
p14
aV2016\u5e746\u670817\u53f7
p15
aV2016\u5e746\u670824\u53f7
p16
aS'2016\xe5\xb9\xb407\xe6\x9c\x8801\xe6\x97\xa5'
p17
aa(lp18
I6244
aI9256
aI12501
aI14837
aI17593
aI20486
aI22912
aI25076
aI28621
aI29170
aI20889
aI39341
aI51901
aI51261
aa(lp19
I6955
aI7069
aI7399
aI9222
aI10008
aI7432
aI8873
aI8702
aI9115
aI8975
aI4629
aI8881
aI10116
aI12539
aa(lp20
I63351
aI83014
aI47825
aI40130
aI46200
aI47063
aI49952
aI53796
aI55395
aI58150
aI34671
aI74473
aI111542
aI115132
aa(lp21
I7892
aI10825
aI11338
aI9895
aI10666
aI11326
aI11402
aI10992
aI10204
aI12509
aI6482
aI12393
aI11543
aI9744
aa(lp22
I7970
aI10995
aI13597
aI15666
aI16817
aI17201
aI20750
aI22387
aI23669
aI24929
aI15732
aI29775
aI34493
aI33345
aa(lp23
I7371
aI9963
aI11455
aI11550
aI11518
aI10278
aI12458
aI12520
aI12182
aI13112
aI8333
aI13827
aI15290
aI18431
aa(lp24
I591
aI703
aI736
aI9
aI0
aI0
aI0
aI0
aI0
aI0
aI0
aI0
aI0
aI0
aa(lp25
I5618
aI7410
aI8038
aI8014
aI7804
aI7995
aI7744
aI7485
aI7470
aI8110
aI4685
aI10540
aI11710
aI11349
aa(lp26
I13105
aI14872
aI13736
aI17354
aI17215
aI16480
aI15592
aI13866
aI12488
aI11778
aI5896
aI11225
aI15098
aI16898
aasS'all_func_clik'
p27
(lp28
(lp29
g4
ag5
ag6
ag7
ag8
ag9
ag10
ag11
ag12
ag13
ag14
ag15
ag16
ag17
aa(lp30
I14143
aI23399
aI35900
aI50737
aI68330
aI88816
aI111728
aI136804
aI165425
aI194595
aI215484
aI254825
aI306726
aI357987
aa(lp31
I15664
aI22733
aI30132
aI39354
aI49362
aI56794
aI65667
aI74369
aI83484
aI92459
aI97088
aI105969
aI116085
aI128624
aa(lp32
I118772
aI201786
aI249611
aI289741
aI335941
aI383004
aI432956
aI486752
aI542147
aI600297
aI634968
aI709441
aI820983
aI936115
aa(lp33
I17459
aI28284
aI39622
aI49517
aI60183
aI71509
aI82911
aI93903
aI104107
aI116616
aI123098
aI135491
aI147034
aI156778
aa(lp34
I20588
aI31583
aI45180
aI60846
aI77663
aI94864
aI115614
aI138001
aI161670
aI186599
aI202331
aI232106
aI266599
aI299944
aa(lp35
I16262
aI26225
aI37680
aI49230
aI60748
aI71026
aI83484
aI96004
aI108186
aI121298
aI129631
aI143458
aI158748
aI177179
aa(lp36
I1199
aI1902
aI2638
aI2647
aI2647
aI2647
aI2647
aI2647
aI2647
aI2647
aI2647
aI2647
aI2647
aI2647
aa(lp37
I13461
aI20871
aI28909
aI36923
aI44727
aI52722
aI60466
aI67951
aI75421
aI83531
aI88216
aI98756
aI110466
aI121815
aa(lp38
I16032
aI30904
aI44640
aI61994
aI79209
aI95689
aI111281
aI125147
aI137635
aI149413
aI155309
aI166534
aI181632
aI198530
aas.